target datalayout = "e-m:e-p270:32:32-p271:32:32-p272:64:64-i64:64-i128:128-f80:128-n8:16:32:64-S128"
target triple = "x86_64-pc-linux-gnu"

%"class.YAML::Scanner" = type { %"class.YAML::Stream", %"class.std::queue", i8, i8, i8, i8, i8, %"class.std::stack", %"class.std::stack.12", %"class.YAML::ptr_vector", %"class.std::stack.22" }
%"class.YAML::Stream" = type { ptr, %"struct.YAML::Mark", i32, i8, %"class.std::deque", ptr, i64, i64 }
%"struct.YAML::Mark" = type { i32, i32, i32 }
%"class.std::deque" = type { %"class.std::_Deque_base" }
%"class.std::_Deque_base" = type { %"struct.std::_Deque_base<char, std::allocator<char>>::_Deque_impl" }
%"struct.std::_Deque_base<char, std::allocator<char>>::_Deque_impl" = type { %"struct.std::_Deque_base<char, std::allocator<char>>::_Deque_impl_data" }
%"struct.std::_Deque_base<char, std::allocator<char>>::_Deque_impl_data" = type { ptr, i64, %"struct.std::_Deque_iterator", %"struct.std::_Deque_iterator" }
%"struct.std::_Deque_iterator" = type { ptr, ptr, ptr, ptr }
%"class.std::queue" = type { %"class.std::deque.0" }
%"class.std::deque.0" = type { %"class.std::_Deque_base.1" }
%"class.std::_Deque_base.1" = type { %"struct.std::_Deque_base<YAML::Token, std::allocator<YAML::Token>>::_Deque_impl" }
%"struct.std::_Deque_base<YAML::Token, std::allocator<YAML::Token>>::_Deque_impl" = type { %"struct.std::_Deque_base<YAML::Token, std::allocator<YAML::Token>>::_Deque_impl_data" }
%"struct.std::_Deque_base<YAML::Token, std::allocator<YAML::Token>>::_Deque_impl_data" = type { ptr, i64, %"struct.std::_Deque_iterator.5", %"struct.std::_Deque_iterator.5" }
%"struct.std::_Deque_iterator.5" = type { ptr, ptr, ptr, ptr }
%"class.std::stack" = type { %"class.std::deque.6" }
%"class.std::deque.6" = type { %"class.std::_Deque_base.7" }
%"class.std::_Deque_base.7" = type { %"struct.std::_Deque_base<YAML::Scanner::SimpleKey, std::allocator<YAML::Scanner::SimpleKey>>::_Deque_impl" }
%"struct.std::_Deque_base<YAML::Scanner::SimpleKey, std::allocator<YAML::Scanner::SimpleKey>>::_Deque_impl" = type { %"struct.std::_Deque_base<YAML::Scanner::SimpleKey, std::allocator<YAML::Scanner::SimpleKey>>::_Deque_impl_data" }
%"struct.std::_Deque_base<YAML::Scanner::SimpleKey, std::allocator<YAML::Scanner::SimpleKey>>::_Deque_impl_data" = type { ptr, i64, %"struct.std::_Deque_iterator.11", %"struct.std::_Deque_iterator.11" }
%"struct.std::_Deque_iterator.11" = type { ptr, ptr, ptr, ptr }
%"class.std::stack.12" = type { %"class.std::deque.13" }
%"class.std::deque.13" = type { %"class.std::_Deque_base.14" }
%"class.std::_Deque_base.14" = type { %"struct.std::_Deque_base<YAML::Scanner::IndentMarker *, std::allocator<YAML::Scanner::IndentMarker *>>::_Deque_impl" }
%"struct.std::_Deque_base<YAML::Scanner::IndentMarker *, std::allocator<YAML::Scanner::IndentMarker *>>::_Deque_impl" = type { %"struct.std::_Deque_base<YAML::Scanner::IndentMarker *, std::allocator<YAML::Scanner::IndentMarker *>>::_Deque_impl_data" }
%"struct.std::_Deque_base<YAML::Scanner::IndentMarker *, std::allocator<YAML::Scanner::IndentMarker *>>::_Deque_impl_data" = type { ptr, i64, %"struct.std::_Deque_iterator.18", %"struct.std::_Deque_iterator.18" }
%"struct.std::_Deque_iterator.18" = type { ptr, ptr, ptr, ptr }
%"class.YAML::ptr_vector" = type { %"class.std::vector" }
%"class.std::vector" = type { %"struct.std::_Vector_base" }
%"struct.std::_Vector_base" = type { %"struct.std::_Vector_base<std::unique_ptr<YAML::Scanner::IndentMarker>, std::allocator<std::unique_ptr<YAML::Scanner::IndentMarker>>>::_Vector_impl" }
%"struct.std::_Vector_base<std::unique_ptr<YAML::Scanner::IndentMarker>, std::allocator<std::unique_ptr<YAML::Scanner::IndentMarker>>>::_Vector_impl" = type { %"struct.std::_Vector_base<std::unique_ptr<YAML::Scanner::IndentMarker>, std::allocator<std::unique_ptr<YAML::Scanner::IndentMarker>>>::_Vector_impl_data" }
%"struct.std::_Vector_base<std::unique_ptr<YAML::Scanner::IndentMarker>, std::allocator<std::unique_ptr<YAML::Scanner::IndentMarker>>>::_Vector_impl_data" = type { ptr, ptr, ptr }
%"class.std::stack.22" = type { %"class.std::deque.23" }
%"class.std::deque.23" = type { %"class.std::_Deque_base.24" }
%"class.std::_Deque_base.24" = type { %"struct.std::_Deque_base<YAML::Scanner::FLOW_MARKER, std::allocator<YAML::Scanner::FLOW_MARKER>>::_Deque_impl" }
%"struct.std::_Deque_base<YAML::Scanner::FLOW_MARKER, std::allocator<YAML::Scanner::FLOW_MARKER>>::_Deque_impl" = type { %"struct.std::_Deque_base<YAML::Scanner::FLOW_MARKER, std::allocator<YAML::Scanner::FLOW_MARKER>>::_Deque_impl_data" }
%"struct.std::_Deque_base<YAML::Scanner::FLOW_MARKER, std::allocator<YAML::Scanner::FLOW_MARKER>>::_Deque_impl_data" = type { ptr, i64, %"struct.std::_Deque_iterator.28", %"struct.std::_Deque_iterator.28" }
%"struct.std::_Deque_iterator.28" = type { ptr, ptr, ptr, ptr }
%"struct.YAML::Token" = type <{ i32, i32, %"struct.YAML::Mark", [4 x i8], %"class.std::__cxx11::basic_string", %"class.std::vector.29", i32, [4 x i8] }>
%"class.std::__cxx11::basic_string" = type { %"struct.std::__cxx11::basic_string<char>::_Alloc_hider", i64, %union.anon }
%"struct.std::__cxx11::basic_string<char>::_Alloc_hider" = type { ptr }
%union.anon = type { i64, [8 x i8] }
%"class.std::vector.29" = type { %"struct.std::_Vector_base.30" }
%"struct.std::_Vector_base.30" = type { %"struct.std::_Vector_base<std::__cxx11::basic_string<char>, std::allocator<std::__cxx11::basic_string<char>>>::_Vector_impl" }
%"struct.std::_Vector_base<std::__cxx11::basic_string<char>, std::allocator<std::__cxx11::basic_string<char>>>::_Vector_impl" = type { %"struct.std::_Vector_base<std::__cxx11::basic_string<char>, std::allocator<std::__cxx11::basic_string<char>>>::_Vector_impl_data" }
%"struct.std::_Vector_base<std::__cxx11::basic_string<char>, std::allocator<std::__cxx11::basic_string<char>>>::_Vector_impl_data" = type { ptr, ptr, ptr }

; Function Attrs: mustprogress nounwind uwtable
define linkonce_odr void @_ZNSt15_Deque_iteratorIN4YAML5TokenERS1_PS1_EC2ERKS4_(ptr noundef nonnull align 8 dereferenceable(32) %0, ptr noundef nonnull align 8 dereferenceable(32) %1) unnamed_addr #2 comdat align 2 {
  %3 = alloca ptr, align 8
  %4 = alloca ptr, align 8
  store ptr %0, ptr %3, align 8, !tbaa !199
  store ptr %1, ptr %4, align 8, !tbaa !199
  %5 = load ptr, ptr %3, align 8
  %6 = getelementptr inbounds nuw %"struct.std::_Deque_iterator.5", ptr %5, i32 0, i32 0
  %7 = load ptr, ptr %4, align 8, !tbaa !199
  %8 = getelementptr inbounds nuw %"struct.std::_Deque_iterator.5", ptr %7, i32 0, i32 0
  %9 = load ptr, ptr %8, align 8, !tbaa !212
  store ptr %9, ptr %6, align 8, !tbaa !212
  %10 = getelementptr inbounds nuw %"struct.std::_Deque_iterator.5", ptr %5, i32 0, i32 1
  %11 = load ptr, ptr %4, align 8, !tbaa !199
  %12 = getelementptr inbounds nuw %"struct.std::_Deque_iterator.5", ptr %11, i32 0, i32 1
  %13 = load ptr, ptr %12, align 8, !tbaa !214
  store ptr %13, ptr %10, align 8, !tbaa !214
  %14 = getelementptr inbounds nuw %"struct.std::_Deque_iterator.5", ptr %5, i32 0, i32 2
  %15 = load ptr, ptr %4, align 8, !tbaa !199
  %16 = getelementptr inbounds nuw %"struct.std::_Deque_iterator.5", ptr %15, i32 0, i32 2
  %17 = load ptr, ptr %16, align 8, !tbaa !213
  store ptr %17, ptr %14, align 8, !tbaa !213
  %18 = getelementptr inbounds nuw %"struct.std::_Deque_iterator.5", ptr %5, i32 0, i32 3
  %19 = load ptr, ptr %4, align 8, !tbaa !199
  %20 = getelementptr inbounds nuw %"struct.std::_Deque_iterator.5", ptr %19, i32 0, i32 3
  %21 = load ptr, ptr %20, align 8, !tbaa !209
  store ptr %21, ptr %18, align 8, !tbaa !209
  ret void
}

; Function Attrs: mustprogress nounwind uwtable
define linkonce_odr noundef nonnull align 8 dereferenceable(84) ptr @_ZNKSt15_Deque_iteratorIN4YAML5TokenERS1_PS1_EdeEv(ptr noundef nonnull align 8 dereferenceable(32) %0) #2 comdat align 2 {
  %2 = alloca ptr, align 8
  store ptr %0, ptr %2, align 8, !tbaa !199
  %3 = load ptr, ptr %2, align 8
  %4 = getelementptr inbounds nuw %"struct.std::_Deque_iterator.5", ptr %3, i32 0, i32 0
  %5 = load ptr, ptr %4, align 8, !tbaa !212
  ret ptr %5
}

; Function Attrs: mustprogress nounwind uwtable
define linkonce_odr void @_ZNSt5dequeIN4YAML5TokenESaIS1_EE5beginEv(ptr dead_on_unwind noalias writable sret(%"struct.std::_Deque_iterator.5") align 8 %0, ptr noundef nonnull align 8 dereferenceable(80) %1) #2 comdat align 2 {
  %3 = alloca ptr, align 8
  %4 = alloca ptr, align 8
  store ptr %0, ptr %3, align 8
  store ptr %1, ptr %4, align 8, !tbaa !197
  %5 = load ptr, ptr %4, align 8
  %6 = getelementptr inbounds nuw %"class.std::_Deque_base.1", ptr %5, i32 0, i32 0
  %7 = getelementptr inbounds nuw %"struct.std::_Deque_base<YAML::Token, std::allocator<YAML::Token>>::_Deque_impl_data", ptr %6, i32 0, i32 2
  call void @_ZNSt15_Deque_iteratorIN4YAML5TokenERS1_PS1_EC2ERKS4_(ptr noundef nonnull align 8 dereferenceable(32) %0, ptr noundef nonnull align 8 dereferenceable(32) %7) #11
  ret void
}

; Function Attrs: mustprogress nounwind uwtable
define linkonce_odr noundef zeroext i1 @_ZSteqRKSt15_Deque_iteratorIN4YAML5TokenERS1_PS1_ES6_(ptr noundef nonnull align 8 dereferenceable(32) %0, ptr noundef nonnull align 8 dereferenceable(32) %1) #2 comdat {
  %3 = alloca ptr, align 8
  %4 = alloca ptr, align 8
  store ptr %0, ptr %3, align 8, !tbaa !199
  store ptr %1, ptr %4, align 8, !tbaa !199
  %5 = load ptr, ptr %3, align 8, !tbaa !199
  %6 = getelementptr inbounds nuw %"struct.std::_Deque_iterator.5", ptr %5, i32 0, i32 0
  %7 = load ptr, ptr %6, align 8, !tbaa !212
  %8 = load ptr, ptr %4, align 8, !tbaa !199
  %9 = getelementptr inbounds nuw %"struct.std::_Deque_iterator.5", ptr %8, i32 0, i32 0
  %10 = load ptr, ptr %9, align 8, !tbaa !212
  %11 = icmp eq ptr %7, %10
  ret i1 %11
}

; Function Attrs: mustprogress nounwind uwtable
define linkonce_odr noundef nonnull align 8 dereferenceable(84) ptr @_ZNSt5dequeIN4YAML5TokenESaIS1_EE5frontEv(ptr noundef nonnull align 8 dereferenceable(80) %0) #2 comdat align 2 {
  %2 = alloca ptr, align 8
  %3 = alloca %"struct.std::_Deque_iterator.5", align 8
  store ptr %0, ptr %2, align 8, !tbaa !197
  %4 = load ptr, ptr %2, align 8
  call void @llvm.lifetime.start.p0(i64 32, ptr %3) #11
  call void @_ZNSt5dequeIN4YAML5TokenESaIS1_EE5beginEv(ptr dead_on_unwind writable sret(%"struct.std::_Deque_iterator.5") align 8 %3, ptr noundef nonnull align 8 dereferenceable(80) %4) #11
  %5 = call noundef nonnull align 8 dereferenceable(84) ptr @_ZNKSt15_Deque_iteratorIN4YAML5TokenERS1_PS1_EdeEv(ptr noundef nonnull align 8 dereferenceable(32) %3) #11
  call void @llvm.lifetime.end.p0(i64 32, ptr %3) #11
  ret ptr %5
}

; Function Attrs: mustprogress nounwind uwtable
define linkonce_odr noundef zeroext i1 @_ZNKSt5dequeIN4YAML5TokenESaIS1_EE5emptyEv(ptr noundef nonnull align 8 dereferenceable(80) %0) #2 comdat align 2 {
  %2 = alloca ptr, align 8
  store ptr %0, ptr %2, align 8, !tbaa !197
  %3 = load ptr, ptr %2, align 8
  %4 = getelementptr inbounds nuw %"class.std::_Deque_base.1", ptr %3, i32 0, i32 0
  %5 = getelementptr inbounds nuw %"struct.std::_Deque_base<YAML::Token, std::allocator<YAML::Token>>::_Deque_impl_data", ptr %4, i32 0, i32 3
  %6 = getelementptr inbounds nuw %"class.std::_Deque_base.1", ptr %3, i32 0, i32 0
  %7 = getelementptr inbounds nuw %"struct.std::_Deque_base<YAML::Token, std::allocator<YAML::Token>>::_Deque_impl_data", ptr %6, i32 0, i32 2
  %8 = call noundef zeroext i1 @_ZSteqRKSt15_Deque_iteratorIN4YAML5TokenERS1_PS1_ES6_(ptr noundef nonnull align 8 dereferenceable(32) %5, ptr noundef nonnull align 8 dereferenceable(32) %7) #11
  ret i1 %8
}

; Function Attrs: mustprogress nounwind uwtable
define linkonce_odr noundef nonnull align 8 dereferenceable(84) ptr @_ZNSt5queueIN4YAML5TokenESt5dequeIS1_SaIS1_EEE5frontEv(ptr noundef nonnull align 8 dereferenceable(80) %0) #2 comdat align 2 {
  %2 = alloca ptr, align 8
  store ptr %0, ptr %2, align 8, !tbaa !67
  %3 = load ptr, ptr %2, align 8
  %4 = getelementptr inbounds nuw %"class.std::queue", ptr %3, i32 0, i32 0
  %5 = call noundef nonnull align 8 dereferenceable(84) ptr @_ZNSt5dequeIN4YAML5TokenESaIS1_EE5frontEv(ptr noundef nonnull align 8 dereferenceable(80) %4) #11
  ret ptr %5
}

; Function Attrs: mustprogress nounwind uwtable
define linkonce_odr void @_ZNSt5queueIN4YAML5TokenESt5dequeIS1_SaIS1_EEE3popEv(ptr noundef nonnull align 8 dereferenceable(80) %0) #2 comdat align 2 {
  %2 = alloca ptr, align 8
  store ptr %0, ptr %2, align 8, !tbaa !67
  %3 = load ptr, ptr %2, align 8
  %4 = getelementptr inbounds nuw %"class.std::queue", ptr %3, i32 0, i32 0
  call void @_ZNSt5dequeIN4YAML5TokenESaIS1_EE9pop_frontEv(ptr noundef nonnull align 8 dereferenceable(80) %4) #11
  ret void
}

; Function Attrs: mustprogress nounwind uwtable
define linkonce_odr noundef zeroext i1 @_ZNKSt5queueIN4YAML5TokenESt5dequeIS1_SaIS1_EEE5emptyEv(ptr noundef nonnull align 8 dereferenceable(80) %0) #2 comdat align 2 {
  %2 = alloca ptr, align 8
  store ptr %0, ptr %2, align 8, !tbaa !67
  %3 = load ptr, ptr %2, align 8
  %4 = getelementptr inbounds nuw %"class.std::queue", ptr %3, i32 0, i32 0
  %5 = call noundef zeroext i1 @_ZNKSt5dequeIN4YAML5TokenESaIS1_EE5emptyEv(ptr noundef nonnull align 8 dereferenceable(80) %4) #11
  ret i1 %5
}

; Function Attrs: mustprogress uwtable
define void @_ZN4YAML7Scanner19EnsureTokensInQueueEv(ptr noundef nonnull align 8 dereferenceable(488) %0) #0 align 2 {
  %2 = alloca ptr, align 8
  %3 = alloca ptr, align 8
  %4 = alloca i32, align 4
  store ptr %0, ptr %2, align 8, !tbaa !3
  %5 = load ptr, ptr %2, align 8
  br label %6

6:                                                ; preds = %1, %25, %33
  %7 = getelementptr inbounds nuw %"class.YAML::Scanner", ptr %5, i32 0, i32 1
  %8 = call noundef zeroext i1 @_ZNKSt5queueIN4YAML5TokenESt5dequeIS1_SaIS1_EEE5emptyEv(ptr noundef nonnull align 8 dereferenceable(80) %7)
  br i1 %8, label %28, label %9

9:                                                ; preds = %6
  call void @llvm.lifetime.start.p0(i64 8, ptr %3) #11
  %10 = getelementptr inbounds nuw %"class.YAML::Scanner", ptr %5, i32 0, i32 1
  %11 = call noundef nonnull align 8 dereferenceable(84) ptr @_ZNSt5queueIN4YAML5TokenESt5dequeIS1_SaIS1_EEE5frontEv(ptr noundef nonnull align 8 dereferenceable(80) %10)
  store ptr %11, ptr %3, align 8, !tbaa !77
  %12 = load ptr, ptr %3, align 8, !tbaa !77
  %13 = getelementptr inbounds nuw %"struct.YAML::Token", ptr %12, i32 0, i32 0
  %14 = load i32, ptr %13, align 8, !tbaa !78
  %15 = icmp eq i32 %14, 0
  br i1 %15, label %16, label %17

16:                                               ; preds = %9
  store i32 1, ptr %4, align 4
  br label %25

17:                                               ; preds = %9
  %18 = load ptr, ptr %3, align 8, !tbaa !77
  %19 = getelementptr inbounds nuw %"struct.YAML::Token", ptr %18, i32 0, i32 0
  %20 = load i32, ptr %19, align 8, !tbaa !78
  %21 = icmp eq i32 %20, 1
  br i1 %21, label %22, label %24

22:                                               ; preds = %17
  %23 = getelementptr inbounds nuw %"class.YAML::Scanner", ptr %5, i32 0, i32 1
  call void @_ZNSt5queueIN4YAML5TokenESt5dequeIS1_SaIS1_EEE3popEv(ptr noundef nonnull align 8 dereferenceable(80) %23)
  store i32 2, ptr %4, align 4
  br label %25, !llvm.loop !89

24:                                               ; preds = %17
  store i32 0, ptr %4, align 4
  br label %25

25:                                               ; preds = %24, %22, %16
  call void @llvm.lifetime.end.p0(i64 8, ptr %3) #11
  %26 = load i32, ptr %4, align 4
  switch i32 %26, label %35 [
    i32 0, label %27
    i32 1, label %34
    i32 2, label %6
  ]

27:                                               ; preds = %25
  br label %28

28:                                               ; preds = %27, %6
  %29 = getelementptr inbounds nuw %"class.YAML::Scanner", ptr %5, i32 0, i32 3
  %30 = load i8, ptr %29, align 1, !tbaa !63, !range !91, !noundef !92
  %31 = trunc i8 %30 to i1
  br i1 %31, label %32, label %33

32:                                               ; preds = %28
  br label %34

33:                                               ; preds = %28
  call void @_ZN4YAML7Scanner13ScanNextTokenEv(ptr noundef nonnull align 8 dereferenceable(488) %5)
  br label %6, !llvm.loop !89

34:                                               ; preds = %32, %25
  ret void

35:                                               ; preds = %25
  unreachable
}

; Function Attrs: mustprogress uwtable
define void @_ZN4YAML7Scanner3popEv(ptr noundef nonnull align 8 dereferenceable(488) %0) #0 align 2 {
  %2 = alloca ptr, align 8
  store ptr %0, ptr %2, align 8, !tbaa !3
  %3 = load ptr, ptr %2, align 8
  call void @_ZN4YAML7Scanner19EnsureTokensInQueueEv(ptr noundef nonnull align 8 dereferenceable(488) %3)
  %4 = getelementptr inbounds nuw %"class.YAML::Scanner", ptr %3, i32 0, i32 1
  %5 = call noundef zeroext i1 @_ZNKSt5queueIN4YAML5TokenESt5dequeIS1_SaIS1_EEE5emptyEv(ptr noundef nonnull align 8 dereferenceable(80) %4)
  br i1 %5, label %8, label %6

6:                                                ; preds = %1
  %7 = getelementptr inbounds nuw %"class.YAML::Scanner", ptr %3, i32 0, i32 1
  call void @_ZNSt5queueIN4YAML5TokenESt5dequeIS1_SaIS1_EEE3popEv(ptr noundef nonnull align 8 dereferenceable(80) %7)
  br label %8

8:                                                ; preds = %6, %1
  ret void
}